; Function Attrs: nounwind uwtable
define hidden void @zif_is_countable(ptr noundef %0, ptr nocapture noundef writeonly %1) local_unnamed_addr #0 {
  %3 = getelementptr inbounds i8, ptr %0, i64 44
  %4 = load i32, ptr %3, align 4
  %cond = icmp eq i32 %4, 1
  br i1 %cond, label %6, label %5

5:                                                ; preds = %2
  tail call void @zend_wrong_parameters_count_error(i32 noundef 1, i32 noundef 1) #8
  tail call void @zend_wrong_parameter_error(i32 noundef 1, i32 noundef 0, ptr noundef null, i32 noundef 0, ptr noundef null) #8
  br label %11

6:                                                ; preds = %2
  %7 = getelementptr inbounds i8, ptr %0, i64 80
  %8 = tail call zeroext i1 @zend_is_countable(ptr noundef nonnull %7) #8
  %9 = select i1 %8, i32 3, i32 2
  %10 = getelementptr inbounds i8, ptr %1, i64 8
  store i32 %9, ptr %10, align 8
  br label %11

11:                                               ; preds = %6, %5
  ret void
}